target datalayout = "e-m:e-p270:32:32-p271:32:32-p272:64:64-i64:64-i128:128-f80:128-n8:16:32:64-S128"
target triple = "x86_64-pc-linux-gnu"

%class.ProtoTreeModel = type { %class.QAbstractItemModel, ptr }
%class.QAbstractItemModel = type { %class.QObject }
%class.QObject = type { ptr, %class.QScopedPointer }
%class.QScopedPointer = type { ptr }
%class.QModelIndex = type { i32, i32, i64, ptr }
%struct.find_hfid_ = type { i32, ptr }

; Function Attrs: mustprogress nounwind uwtable
define linkonce_odr void @_ZN11QModelIndexC2EiiPKvPK18QAbstractItemModel(ptr noundef nonnull align 8 dereferenceable(24) %0, i32 noundef %1, i32 noundef %2, ptr noundef %3, ptr noundef %4) unnamed_addr #5 comdat align 2 {
  %6 = alloca ptr, align 8
  %7 = alloca i32, align 4
  %8 = alloca i32, align 4
  %9 = alloca ptr, align 8
  %10 = alloca ptr, align 8
  store ptr %0, ptr %6, align 8
  store i32 %1, ptr %7, align 4
  store i32 %2, ptr %8, align 4
  store ptr %3, ptr %9, align 8
  store ptr %4, ptr %10, align 8
  %11 = load ptr, ptr %6, align 8
  %12 = getelementptr inbounds %class.QModelIndex, ptr %11, i32 0, i32 0
  %13 = load i32, ptr %7, align 4
  store i32 %13, ptr %12, align 8
  %14 = getelementptr inbounds %class.QModelIndex, ptr %11, i32 0, i32 1
  %15 = load i32, ptr %8, align 4
  store i32 %15, ptr %14, align 4
  %16 = getelementptr inbounds %class.QModelIndex, ptr %11, i32 0, i32 2
  %17 = load ptr, ptr %9, align 8
  %18 = ptrtoint ptr %17 to i64
  store i64 %18, ptr %16, align 8
  %19 = getelementptr inbounds %class.QModelIndex, ptr %11, i32 0, i32 3
  %20 = load ptr, ptr %10, align 8
  store ptr %20, ptr %19, align 8
  ret void
}

; Function Attrs: mustprogress nounwind uwtable
define linkonce_odr void @_ZNK18QAbstractItemModel11createIndexEiiPKv(ptr dead_on_unwind noalias writable sret(%class.QModelIndex) align 8 %0, ptr noundef nonnull align 8 dereferenceable(16) %1, i32 noundef %2, i32 noundef %3, ptr noundef %4) #5 comdat align 2 {
  %6 = alloca ptr, align 8
  %7 = alloca i32, align 4
  %8 = alloca i32, align 4
  %9 = alloca ptr, align 8
  store ptr %1, ptr %6, align 8
  store i32 %2, ptr %7, align 4
  store i32 %3, ptr %8, align 4
  store ptr %4, ptr %9, align 8
  %10 = load ptr, ptr %6, align 8
  %11 = load i32, ptr %7, align 4
  %12 = load i32, ptr %8, align 4
  %13 = load ptr, ptr %9, align 8
  call void @_ZN11QModelIndexC2EiiPKvPK18QAbstractItemModel(ptr noundef nonnull align 8 dereferenceable(24) %0, i32 noundef %11, i32 noundef %12, ptr noundef %13, ptr noundef %10) #9
  ret void
}

; Function Attrs: mustprogress uwtable
define void @_ZNK14ProtoTreeModel18indexFromProtoNodeEP9ProtoNode(ptr dead_on_unwind noalias writable sret(%class.QModelIndex) align 8 %0, ptr noundef nonnull align 8 dereferenceable(24) %1, ptr noundef %2) #0 align 2 {
  %4 = alloca ptr, align 8
  %5 = alloca ptr, align 8
  %6 = alloca i32, align 4
  store ptr %1, ptr %4, align 8
  store ptr %2, ptr %5, align 8
  %7 = load ptr, ptr %4, align 8
  %8 = load ptr, ptr %5, align 8
  %9 = icmp ne ptr %8, null
  br i1 %9, label %11, label %10

10:                                               ; preds = %3
  call void @_ZN11QModelIndexC2Ev(ptr noundef nonnull align 8 dereferenceable(24) %0) #9
  br label %23

11:                                               ; preds = %3
  %12 = load ptr, ptr %5, align 8
  %13 = call noundef i32 @_ZN9ProtoNode3rowEv(ptr noundef nonnull align 8 dereferenceable(40) %12)
  store i32 %13, ptr %6, align 4
  %14 = load ptr, ptr %5, align 8
  %15 = call noundef zeroext i1 @_ZNK9ProtoNode7isValidEv(ptr noundef nonnull align 8 dereferenceable(40) %14)
  br i1 %15, label %16, label %19

16:                                               ; preds = %11
  %17 = load i32, ptr %6, align 4
  %18 = icmp slt i32 %17, 0
  br i1 %18, label %19, label %20

19:                                               ; preds = %16, %11
  call void @_ZN11QModelIndexC2Ev(ptr noundef nonnull align 8 dereferenceable(24) %0) #9
  br label %23

20:                                               ; preds = %16
  %21 = load i32, ptr %6, align 4
  %22 = load ptr, ptr %5, align 8
  call void @_ZNK18QAbstractItemModel11createIndexEiiPKv(ptr dead_on_unwind writable sret(%class.QModelIndex) align 8 %0, ptr noundef nonnull align 8 dereferenceable(16) %7, i32 noundef %21, i32 noundef 0, ptr noundef %22)
  br label %23

23:                                               ; preds = %20, %19, %10
  ret void
}

; Function Attrs: mustprogress nounwind uwtable
define linkonce_odr void @_ZN11QModelIndexC2Ev(ptr noundef nonnull align 8 dereferenceable(24) %0) unnamed_addr #5 comdat align 2 {
  %2 = alloca ptr, align 8
  store ptr %0, ptr %2, align 8
  %3 = load ptr, ptr %2, align 8
  %4 = getelementptr inbounds %class.QModelIndex, ptr %3, i32 0, i32 0
  store i32 -1, ptr %4, align 8
  %5 = getelementptr inbounds %class.QModelIndex, ptr %3, i32 0, i32 1
  store i32 -1, ptr %5, align 4
  %6 = getelementptr inbounds %class.QModelIndex, ptr %3, i32 0, i32 2
  store i64 0, ptr %6, align 8
  %7 = getelementptr inbounds %class.QModelIndex, ptr %3, i32 0, i32 3
  store ptr null, ptr %7, align 8
  ret void
}

; Function Attrs: mustprogress uwtable
define void @_ZN14ProtoTreeModel13findFirstHfidEi(ptr dead_on_unwind noalias writable sret(%class.QModelIndex) align 8 %0, ptr noundef nonnull align 8 dereferenceable(24) %1, i32 noundef %2) #0 align 2 {
  %4 = alloca ptr, align 8
  %5 = alloca i32, align 4
  %6 = alloca %struct.find_hfid_, align 8
  store ptr %1, ptr %4, align 8
  store i32 %2, ptr %5, align 4
  %7 = load ptr, ptr %4, align 8
  %8 = getelementptr inbounds %class.ProtoTreeModel, ptr %7, i32 0, i32 1
  %9 = load ptr, ptr %8, align 8
  %10 = icmp ne ptr %9, null
  br i1 %10, label %11, label %14

11:                                               ; preds = %3
  %12 = load i32, ptr %5, align 4
  %13 = icmp slt i32 %12, 0
  br i1 %13, label %14, label %15

14:                                               ; preds = %11, %3
  call void @_ZN11QModelIndexC2Ev(ptr noundef nonnull align 8 dereferenceable(24) %0) #9
  br label %29

15:                                               ; preds = %11
  %16 = load i32, ptr %5, align 4
  %17 = getelementptr inbounds %struct.find_hfid_, ptr %6, i32 0, i32 0
  store i32 %16, ptr %17, align 8
  %18 = getelementptr inbounds %class.ProtoTreeModel, ptr %7, i32 0, i32 1
  %19 = load ptr, ptr %18, align 8
  %20 = call noundef zeroext i1 @_ZN14ProtoTreeModel15foreachFindHfidEP9ProtoNodePv(ptr noundef %19, ptr noundef %6)
  br i1 %20, label %21, label %28

21:                                               ; preds = %15
  %22 = getelementptr inbounds %struct.find_hfid_, ptr %6, i32 0, i32 1
  %23 = load ptr, ptr %22, align 8
  %24 = call noundef zeroext i1 @_ZNK9ProtoNode7isValidEv(ptr noundef nonnull align 8 dereferenceable(40) %23)
  br i1 %24, label %25, label %28

25:                                               ; preds = %21
  %26 = getelementptr inbounds %struct.find_hfid_, ptr %6, i32 0, i32 1
  %27 = load ptr, ptr %26, align 8
  call void @_ZNK14ProtoTreeModel18indexFromProtoNodeEP9ProtoNode(ptr dead_on_unwind writable sret(%class.QModelIndex) align 8 %0, ptr noundef nonnull align 8 dereferenceable(24) %7, ptr noundef %27)
  br label %29

28:                                               ; preds = %21, %15
  call void @_ZN11QModelIndexC2Ev(ptr noundef nonnull align 8 dereferenceable(24) %0) #9
  br label %29

29:                                               ; preds = %28, %25, %14
  ret void
}