; Function Attrs: mustprogress uwtable
define void @_ZN14ProtoTreeModel13findFirstHfidEi(ptr dead_on_unwind noalias nocapture writable writeonly sret(%class.QModelIndex) align 8 %0, ptr noundef nonnull align 8 dereferenceable(24) %1, i32 noundef %2) local_unnamed_addr #0 align 2 {
  %4 = alloca %struct.find_hfid_, align 8
  %5 = getelementptr inbounds i8, ptr %1, i64 16
  %6 = load ptr, ptr %5, align 8
  %7 = icmp eq ptr %6, null
  %8 = icmp slt i32 %2, 0
  %or.cond = or i1 %8, %7
  br i1 %or.cond, label %9, label %12

9:                                                ; preds = %3
  store i32 -1, ptr %0, align 8
  %10 = getelementptr inbounds i8, ptr %0, i64 4
  store i32 -1, ptr %10, align 4
  %11 = getelementptr inbounds i8, ptr %0, i64 8
  tail call void @llvm.memset.p0.i64(ptr noundef nonnull align 8 dereferenceable(16) %11, i8 0, i64 16, i1 false)
  br label %_ZNK14ProtoTreeModel18indexFromProtoNodeEP9ProtoNode.exit

12:                                               ; preds = %3
  store i32 %2, ptr %4, align 8
  %13 = call noundef zeroext i1 @_ZN14ProtoTreeModel15foreachFindHfidEP9ProtoNodePv(ptr noundef %6, ptr noundef nonnull %4)
  br i1 %13, label %14, label %28

14:                                               ; preds = %12
  %15 = getelementptr inbounds i8, ptr %4, i64 8
  %16 = load ptr, ptr %15, align 8
  %17 = tail call noundef zeroext i1 @_ZNK9ProtoNode7isValidEv(ptr noundef nonnull align 8 dereferenceable(40) %16)
  br i1 %17, label %18, label %28

18:                                               ; preds = %14
  tail call void @llvm.experimental.noalias.scope.decl(metadata !18)
  %19 = tail call noundef i32 @_ZN9ProtoNode3rowEv(ptr noundef nonnull align 8 dereferenceable(40) %16), !noalias !18
  %20 = tail call noundef zeroext i1 @_ZNK9ProtoNode7isValidEv(ptr noundef nonnull align 8 dereferenceable(40) %16), !noalias !18
  %21 = icmp sgt i32 %19, -1
  %or.cond.not.i = and i1 %21, %20
  %22 = getelementptr inbounds i8, ptr %0, i64 4
  %23 = getelementptr inbounds i8, ptr %0, i64 8
  br i1 %or.cond.not.i, label %25, label %24

24:                                               ; preds = %18
  store i32 -1, ptr %0, align 8, !alias.scope !18
  store i32 -1, ptr %22, align 4, !alias.scope !18
  tail call void @llvm.memset.p0.i64(ptr noundef nonnull align 8 dereferenceable(16) %23, i8 0, i64 16, i1 false), !alias.scope !18
  br label %_ZNK14ProtoTreeModel18indexFromProtoNodeEP9ProtoNode.exit

25:                                               ; preds = %18
  store i32 %19, ptr %0, align 8, !alias.scope !21
  store i32 0, ptr %22, align 4, !alias.scope !21
  %26 = ptrtoint ptr %16 to i64
  store i64 %26, ptr %23, align 8, !alias.scope !21
  %27 = getelementptr inbounds i8, ptr %0, i64 16
  store ptr %1, ptr %27, align 8, !alias.scope !21
  br label %_ZNK14ProtoTreeModel18indexFromProtoNodeEP9ProtoNode.exit

28:                                               ; preds = %14, %12
  store i32 -1, ptr %0, align 8
  %29 = getelementptr inbounds i8, ptr %0, i64 4
  store i32 -1, ptr %29, align 4
  %30 = getelementptr inbounds i8, ptr %0, i64 8
  tail call void @llvm.memset.p0.i64(ptr noundef nonnull align 8 dereferenceable(16) %30, i8 0, i64 16, i1 false)
  br label %_ZNK14ProtoTreeModel18indexFromProtoNodeEP9ProtoNode.exit

_ZNK14ProtoTreeModel18indexFromProtoNodeEP9ProtoNode.exit: ; preds = %25, %24, %28, %9
  ret void
}